#include <math.h>
#include <stdio.h>
#include <stdlib.h>
#include <string.h>


int main()
{
    int i=0,j=0,length1=0,length2=0;
    char str1[50],str2[50];
    scanf("%s%s",str1,str2);
    length1 = strlen(str1);
    length2 = strlen(str2);
    for(i=0;i<length2;i++)
    {
         for(j=0;j<length1;j++)
         {
              if(str1[j] != str2[i+j])
              break;
              printf("%d",i);
              exit(0);
          }
     }
    return 0;
}
