; ModuleID = '45/1403.c'
source_filename = "45/1403.c"
target datalayout = "e-m:e-p270:32:32-p271:32:32-p272:64:64-i64:64-f80:128-n8:16:32:64-S128"
target triple = "x86_64-pc-linux-gnu"

@.str = private unnamed_addr constant [5 x i8] c"%s%s\00", align 1
@.str.1 = private unnamed_addr constant [3 x i8] c"%d\00", align 1

; Function Attrs: noinline nounwind uwtable
define dso_local i32 @main() #0 {
  %1 = alloca i32, align 4
  %2 = alloca i32, align 4
  %3 = alloca i32, align 4
  %4 = alloca i32, align 4
  %5 = alloca i32, align 4
  %6 = alloca [50 x i8], align 16
  %7 = alloca [50 x i8], align 16
  store i32 0, i32* %1, align 4
  store i32 0, i32* %2, align 4
  store i32 0, i32* %3, align 4
  store i32 0, i32* %4, align 4
  store i32 0, i32* %5, align 4
  %8 = getelementptr inbounds [50 x i8], [50 x i8]* %6, i64 0, i64 0
  %9 = getelementptr inbounds [50 x i8], [50 x i8]* %7, i64 0, i64 0
  %10 = call i32 (i8*, ...) @__isoc99_scanf(i8* getelementptr inbounds ([5 x i8], [5 x i8]* @.str, i64 0, i64 0), i8* %8, i8* %9)
  %11 = getelementptr inbounds [50 x i8], [50 x i8]* %6, i64 0, i64 0
  %12 = call i64 @strlen(i8* %11) #4
  %13 = trunc i64 %12 to i32
  store i32 %13, i32* %4, align 4
  %14 = getelementptr inbounds [50 x i8], [50 x i8]* %7, i64 0, i64 0
  %15 = call i64 @strlen(i8* %14) #4
  %16 = trunc i64 %15 to i32
  store i32 %16, i32* %5, align 4
  store i32 0, i32* %2, align 4
  br label %17

17:                                               ; preds = %48, %0
  %18 = load i32, i32* %2, align 4
  %19 = load i32, i32* %5, align 4
  %20 = icmp slt i32 %18, %19
  br i1 %20, label %21, label %51

21:                                               ; preds = %17
  store i32 0, i32* %3, align 4
  br label %22

22:                                               ; preds = %44, %21
  %23 = load i32, i32* %3, align 4
  %24 = load i32, i32* %4, align 4
  %25 = icmp slt i32 %23, %24
  br i1 %25, label %26, label %47

26:                                               ; preds = %22
  %27 = load i32, i32* %3, align 4
  %28 = sext i32 %27 to i64
  %29 = getelementptr inbounds [50 x i8], [50 x i8]* %6, i64 0, i64 %28
  %30 = load i8, i8* %29, align 1
  %31 = sext i8 %30 to i32
  %32 = load i32, i32* %2, align 4
  %33 = load i32, i32* %3, align 4
  %34 = add nsw i32 %32, %33
  %35 = sext i32 %34 to i64
  %36 = getelementptr inbounds [50 x i8], [50 x i8]* %7, i64 0, i64 %35
  %37 = load i8, i8* %36, align 1
  %38 = sext i8 %37 to i32
  %39 = icmp ne i32 %31, %38
  br i1 %39, label %40, label %41

40:                                               ; preds = %26
  br label %47

41:                                               ; preds = %26
  %42 = load i32, i32* %2, align 4
  %43 = call i32 (i8*, ...) @printf(i8* getelementptr inbounds ([3 x i8], [3 x i8]* @.str.1, i64 0, i64 0), i32 %42)
  call void @exit(i32 0) #5
  unreachable

44:                                               ; No predecessors!
  %45 = load i32, i32* %3, align 4
  %46 = add nsw i32 %45, 1
  store i32 %46, i32* %3, align 4
  br label %22

47:                                               ; preds = %40, %22
  br label %48

48:                                               ; preds = %47
  %49 = load i32, i32* %2, align 4
  %50 = add nsw i32 %49, 1
  store i32 %50, i32* %2, align 4
  br label %17

51:                                               ; preds = %17
  ret i32 0
}

declare dso_local i32 @__isoc99_scanf(i8*, ...) #1

; Function Attrs: nounwind readonly
declare dso_local i64 @strlen(i8*) #2

declare dso_local i32 @printf(i8*, ...) #1

; Function Attrs: noreturn nounwind
declare dso_local void @exit(i32) #3


!llvm.module.flags = !{!0}
!llvm.ident = !{!1}

!0 = !{i32 1, !"wchar_size", i32 4}
!1 = !{!"clang version 10.0.0-4ubuntu1 "}
